; Function Attrs: mustprogress uwtable
define void @_ZN32pxrInternal_v0_24__pxrReserved__7TfDebug25GetDebugSymbolDescriptionERKNSt7__cxx1112basic_stringIcSt11char_traitsIcESaIcEEE(ptr dead_on_unwind noalias writable sret(%"class.std::__cxx11::basic_string") align 8 %0, ptr noundef nonnull align 8 dereferenceable(32) %1) local_unnamed_addr #0 align 2 {
  %3 = load atomic i64, ptr @_ZN32pxrInternal_v0_24__pxrReserved__11TfSingletonINS_22Tf_DebugSymbolRegistryEE9_instanceE seq_cst, align 8
  %.0.i.i.i = inttoptr i64 %3 to ptr
  %.not.i.i = icmp eq i64 %3, 0
  br i1 %.not.i.i, label %4, label %_ZN32pxrInternal_v0_24__pxrReserved__22Tf_DebugSymbolRegistry12_GetInstanceEv.exit

4:                                                ; preds = %2
  %5 = tail call noundef ptr @_ZN32pxrInternal_v0_24__pxrReserved__11TfSingletonINS_22Tf_DebugSymbolRegistryEE15_CreateInstanceERSt6atomicIPS1_E(ptr noundef nonnull align 8 dereferenceable(8) @_ZN32pxrInternal_v0_24__pxrReserved__11TfSingletonINS_22Tf_DebugSymbolRegistryEE9_instanceE)
  br label %_ZN32pxrInternal_v0_24__pxrReserved__22Tf_DebugSymbolRegistry12_GetInstanceEv.exit

_ZN32pxrInternal_v0_24__pxrReserved__22Tf_DebugSymbolRegistry12_GetInstanceEv.exit: ; preds = %2, %4
  %.0.i.i = phi ptr [ %.0.i.i.i, %2 ], [ %5, %4 ]
  tail call void @_ZNK32pxrInternal_v0_24__pxrReserved__22Tf_DebugSymbolRegistry15_GetDescriptionERKNSt7__cxx1112basic_stringIcSt11char_traitsIcESaIcEEE(ptr dead_on_unwind writable sret(%"class.std::__cxx11::basic_string") align 8 %0, ptr noundef nonnull align 8 dereferenceable(176) %.0.i.i, ptr noundef nonnull align 8 dereferenceable(32) %1)
  ret void
}